(lp0
ccopy_reg
_reconstructor
p1
(csensor_msgs.msg._LaserScan
LaserScan
p2
c__builtin__
object
p3
Ntp4
Rp5
(lp6
g1
(cstd_msgs.msg._Header
Header
p7
g3
Ntp8
Rp9
(lp10
I1889
ag1
(cgenpy.rostime
Time
p11
g3
Ntp12
Rp13
(lp14
I1455208506
aI283512597
abaS'base_scan'
p15
abaF0.0
aF6.2657318115234375
aF0.01745329238474369
aF2.9939999876660295e-05
aF0.0
aF0.11999999731779099
aF3.5
a(F0.460999995470047
F0.4519999921321869
F0.453000009059906
F0.45899999141693115
F0.460999995470047
F0.4620000123977661
F0.46299999952316284
F0.460999995470047
F0.46399998664855957
F0.46399998664855957
F0.4659999907016754
F0.46799999475479126
F0.4699999988079071
F0.4970000088214874
F0.0
F0.0
F0.0
F1.9930000305175781
F2.055999994277954
F2.055000066757202
F2.0820000171661377
F2.1059999465942383
F2.1019999980926514
F2.128000020980835
F2.125
F2.1530001163482666
F2.1570000648498535
F0.0
F0.0
F0.0
F0.0
F0.0
F0.0
F0.0
F0.0
F0.0
F0.0
F0.0
F0.0
F0.0
F3.500999927520752
F3.4489998817443848
F0.0
F0.0
F0.0
F0.0
F0.0
F0.0
F0.0
F0.0
F0.0
F0.0
F0.0
F0.0
F0.0
F0.0
F0.0
F0.0
F0.0
F0.0
F0.0
F0.0
F0.0
F0.5569999814033508
F0.5569999814033508
F0.5559999942779541
F0.5519999861717224
F0.5490000247955322
F0.5460000038146973
F0.5429999828338623
F0.5400000214576721
F0.5370000004768372
F0.5339999794960022
F0.531000018119812
F0.5289999842643738
F0.5270000100135803
F0.5239999890327454
F0.5230000019073486
F0.5210000276565552
F0.5199999809265137
F0.5180000066757202
F0.5170000195503235
F0.515999972820282
F0.515999972820282
F0.515999972820282
F0.515999972820282
F0.515999972820282
F0.515999972820282
F0.515999972820282
F0.5170000195503235
F0.5170000195503235
F0.515999972820282
F0.5180000066757202
F0.5189999938011169
F0.5210000276565552
F0.5220000147819519
F0.5249999761581421
F0.5270000100135803
F0.5299999713897705
F0.5320000052452087
F0.5339999794960022
F0.5370000004768372
F0.5389999747276306
F0.5419999957084656
F0.5450000166893005
F0.550000011920929
F0.5519999861717224
F0.5559999942779541
F0.5590000152587891
F0.5640000104904175
F0.5669999718666077
F0.0
F0.0
F0.0
F0.0
F0.0
F0.0
F0.0
F0.0
F0.0
F0.0
F0.0
F0.0
F4.061999797821045
F3.950000047683716
F3.9019999504089355
F3.872999906539917
F3.7300000190734863
F3.6689999103546143
F3.5929999351501465
F3.503999948501587
F3.424999952316284
F3.3440001010894775
F3.253999948501587
F3.2290000915527344
F3.174999952316284
F3.1519999504089355
F3.134999990463257
F3.0439999103546143
F2.9769999980926514
F2.9719998836517334
F2.802000045776367
F2.3269999027252197
F2.2980000972747803
F2.2790000438690186
F2.253999948501587
F2.2260000705718994
F2.177999973297119
F2.1429998874664307
F2.109999895095825
F2.121000051498413
F2.2739999294281006
F0.0
F0.0
F0.0
F0.0
F0.0
F0.0
F0.0
F0.0
F0.0
F0.0
F0.0
F0.0
F0.0
F0.0
F0.0
F0.0
F0.0
F0.0
F2.0360000133514404
F2.053999900817871
F2.0280001163482666
F2.049999952316284
F0.0
F2.0380001068115234
F2.0209999084472656
F2.055000066757202
F2.0929999351501465
F2.0239999294281006
F2.009000062942505
F2.0139999389648438
F1.996000051498413
F0.0
F0.0
F0.0
F2.0889999866485596
F1.9359999895095825
F0.0
F1.9559999704360962
F1.9700000286102295
F1.9630000591278076
F1.9759999513626099
F1.9709999561309814
F1.9839999675750732
F1.965999960899353
F0.0
F0.0
F0.0
F0.0
F1.5479999780654907
F1.5789999961853027
F1.6380000114440918
F1.5700000524520874
F1.6729999780654907
F1.6440000534057617
F2.1419999599456787
F2.1600000858306885
F2.1730000972747803
F2.2049999237060547
F2.005000114440918
F1.9539999961853027
F1.8980000019073486
F1.8639999628067017
F1.840999960899353
F1.8619999885559082
F1.8799999952316284
F1.9210000038146973
F1.9179999828338623
F1.9470000267028809
F1.937000036239624
F3.118000030517578
F3.1649999618530273
F3.2219998836517334
F3.312999963760376
F3.3529999256134033
F3.4149999618530273
F3.49399995803833
F3.5390000343322754
F3.5910000801086426
F3.7360000610351562
F3.7790000438690186
F3.869999885559082
F3.947999954223633
F4.120999813079834
F0.0
F0.0
F0.0
F0.0
F0.0
F0.0
F0.0
F0.0
F0.0
F0.0
F0.0
F0.0
F0.0
F0.0
F0.0
F0.0
F0.0
F0.0
F0.0
F0.0
F0.0
F0.0
F0.0
F2.4489998817443848
F2.5239999294281006
F2.5889999866485596
F0.0
F2.7360000610351562
F2.7829999923706055
F0.0
F0.0
F0.0
F0.0
F2.2799999713897705
F2.313999891281128
F2.9570000171661377
F2.9200000762939453
F0.0
F0.0
F0.0
F0.0
F0.0
F0.0
F0.0
F0.0
F0.0
F0.0
F0.0
F0.0
F0.0
F0.0
F0.0
F0.0
F3.88100004196167
F3.747999906539917
F3.6019999980926514
F3.490999937057495
F3.367000102996826
F3.239000082015991
F3.1489999294281006
F3.059999942779541
F2.9830000400543213
F2.8949999809265137
F2.8329999446868896
F2.7899999618530273
F2.621000051498413
F2.5380001068115234
F2.4660000801086426
F2.380000114440918
F2.3469998836517334
F2.246999979019165
F2.2019999027252197
F2.2279999256134033
F2.128000020980835
F2.0940001010894775
F2.0810000896453857
F2.0859999656677246
F2.115999937057495
F2.1689999103546143
F2.1659998893737793
F2.2219998836517334
F2.322999954223633
F2.424999952316284
F2.4649999141693115
F2.5199999809265137
F2.5950000286102295
F2.819000005722046
F0.0
F3.441999912261963
F0.0
F0.0
F0.0
F0.0
F0.0
F0.0
F0.0
F0.0
F0.0
F0.0
F0.0
F0.0
F0.0
F3.734999895095825
F0.0
F0.0
F0.0
F0.0
F0.0
F0.0
F0.0
F0.0
F0.0
F0.0
F0.45899999141693115
F0.45899999141693115
F0.46000000834465027
F0.45899999141693115
F0.4580000042915344
F0.4569999873638153
F0.4560000002384186
F0.4560000002384186
F0.45500001311302185
F0.4519999921321869
F0.45500001311302185
F0.45500001311302185
tp16
a(F3117.0
F2752.0
F3951.0
F3916.0
F3986.0
F4231.0
F3759.0
F4866.0
F3743.0
F3926.0
F7054.0
F3843.0
F3830.0
F6626.0
F0.0
F144.0
F158.0
F252.0
F251.0
F256.0
F261.0
F257.0
F245.0
F235.0
F238.0
F220.0
F141.0
F80.0
F115.0
F0.0
F0.0
F0.0
F0.0
F0.0
F0.0
F126.0
F89.0
F0.0
F0.0
F92.0
F361.0
F409.0
F0.0
F0.0
F123.0
F129.0
F122.0
F120.0
F168.0
F169.0
F207.0
F62.0
F71.0
F68.0
F86.0
F93.0
F78.0
F40.0
F0.0
F0.0
F0.0
F45.0
F65.0
F2667.0
F2784.0
F2777.0
F3011.0
F3095.0
F2916.0
F3145.0
F3104.0
F3190.0
F3437.0
F3207.0
F3274.0
F3377.0
F3691.0
F3869.0
F3589.0
F3448.0
F3410.0
F3600.0
F3374.0
F3680.0
F3314.0
F3320.0
F3437.0
F3410.0
F3276.0
F3237.0
F3492.0
F3171.0
F3577.0
F3415.0
F3621.0
F3811.0
F3366.0
F3481.0
F3272.0
F3128.0
F3371.0
F3180.0
F2986.0
F3119.0
F3144.0
F3066.0
F3017.0
F3037.0
F2660.0
F3352.0
F6623.0
F0.0
F0.0
F54.0
F77.0
F0.0
F39.0
F164.0
F189.0
F201.0
F0.0
F0.0
F64.0
F333.0
F307.0
F320.0
F326.0
F346.0
F345.0
F311.0
F317.0
F316.0
F316.0
F304.0
F300.0
F289.0
F294.0
F298.0
F298.0
F284.0
F281.0
F385.0
F700.0
F770.0
F812.0
F902.0
F818.0
F1006.0
F1006.0
F797.0
F482.0
F1218.0
F0.0
F0.0
F0.0
F0.0
F0.0
F0.0
F0.0
F0.0
F80.0
F64.0
F75.0
F107.0
F116.0
F165.0
F117.0
F130.0
F157.0
F144.0
F114.0
F133.0
F292.0
F1195.0
F2086.0
F443.0
F511.0
F851.0
F2014.0
F963.0
F345.0
F207.0
F141.0
F176.0
F131.0
F84.0
F654.0
F1417.0
F1818.0
F1307.0
F1199.0
F1547.0
F1196.0
F1223.0
F1409.0
F992.0
F125.0
F133.0
F136.0
F146.0
F882.0
F363.0
F363.0
F362.0
F357.0
F347.0
F1079.0
F1022.0
F1063.0
F976.0
F234.0
F206.0
F138.0
F267.0
F463.0
F387.0
F279.0
F328.0
F359.0
F397.0
F267.0
F286.0
F295.0
F307.0
F322.0
F331.0
F347.0
F342.0
F339.0
F347.0
F327.0
F320.0
F325.0
F383.0
F327.0
F302.0
F285.0
F237.0
F211.0
F187.0
F502.0
F533.0
F562.0
F583.0
F353.0
F441.0
F441.0
F424.0
F425.0
F434.0
F623.0
F585.0
F111.0
F722.0
F617.0
F0.0
F77.0
F582.0
F160.0
F286.0
F220.0
F0.0
F108.0
F108.0
F81.0
F53.0
F80.0
F97.0
F233.0
F203.0
F135.0
F182.0
F102.0
F717.0
F468.0
F652.0
F656.0
F178.0
F276.0
F77.0
F330.0
F752.0
F755.0
F715.0
F728.0
F482.0
F0.0
F0.0
F325.0
F306.0
F329.0
F327.0
F325.0
F307.0
F289.0
F298.0
F213.0
F220.0
F205.0
F176.0
F279.0
F314.0
F343.0
F358.0
F409.0
F363.0
F460.0
F800.0
F571.0
F657.0
F884.0
F771.0
F609.0
F535.0
F442.0
F375.0
F308.0
F383.0
F344.0
F319.0
F291.0
F157.0
F0.0
F131.0
F106.0
F0.0
F0.0
F0.0
F46.0
F69.0
F0.0
F0.0
F0.0
F0.0
F67.0
F84.0
F0.0
F252.0
F132.0
F0.0
F58.0
F0.0
F0.0
F0.0
F0.0
F42.0
F0.0
F0.0
F3411.0
F3372.0
F3863.0
F3779.0
F3698.0
F3328.0
F3337.0
F3699.0
F3763.0
F2109.0
F4660.0
F2038.0
tp17
aba.